target datalayout = "e-m:e-p270:32:32-p271:32:32-p272:64:64-i64:64-i128:128-f80:128-n8:16:32:64-S128"
target triple = "x86_64-pc-linux-gnu"

%union.__CONST_SOCKADDR_ARG = type { ptr }
%struct.addrinfo = type { i32, i32, i32, i32, i32, ptr, ptr, ptr }

@.str.160 = private unnamed_addr constant [7 x i8] c"socket\00", align 1
@.str.161 = private unnamed_addr constant [3 x i8] c"%d\00", align 1
@.str.162 = private unnamed_addr constant [12 x i8] c"getaddrinfo\00", align 1
@.str.163 = private unnamed_addr constant [16 x i8] c"getaddrinfo: %s\00", align 1

; Function Attrs: nounwind uwtable
define internal ptr @make_addrinfo(ptr noundef %0, i16 noundef zeroext %1) #0 {
  %3 = alloca ptr, align 8
  %4 = alloca ptr, align 8
  %5 = alloca i16, align 2
  %6 = alloca ptr, align 8
  %7 = alloca %struct.addrinfo, align 8
  %8 = alloca [32 x i8], align 16
  %9 = alloca i32, align 4
  %10 = alloca i32, align 4
  store ptr %0, ptr %4, align 8
  store i16 %1, ptr %5, align 2
  call void @llvm.lifetime.start.p0(i64 8, ptr %6) #11
  store ptr null, ptr %6, align 8
  call void @llvm.lifetime.start.p0(i64 48, ptr %7) #11
  call void @llvm.lifetime.start.p0(i64 32, ptr %8) #11
  call void @llvm.lifetime.start.p0(i64 4, ptr %9) #11
  call void @llvm.memset.p0.i64(ptr align 8 %7, i8 0, i64 48, i1 false)
  %11 = getelementptr inbounds nuw %struct.addrinfo, ptr %7, i32 0, i32 1
  store i32 0, ptr %11, align 4
  %12 = getelementptr inbounds nuw %struct.addrinfo, ptr %7, i32 0, i32 2
  store i32 1, ptr %12, align 8
  %13 = getelementptr inbounds nuw %struct.addrinfo, ptr %7, i32 0, i32 0
  store i32 33, ptr %13, align 8
  %14 = getelementptr inbounds [32 x i8], ptr %8, i64 0, i64 0
  %15 = load i16, ptr %5, align 2
  %16 = zext i16 %15 to i32
  %17 = call i32 (ptr, i64, ptr, ...) @evutil_snprintf(ptr noundef %14, i64 noundef 32, ptr noundef @.str.161, i32 noundef %16)
  %18 = load ptr, ptr %4, align 8
  %19 = getelementptr inbounds [32 x i8], ptr %8, i64 0, i64 0
  %20 = call i32 @evutil_getaddrinfo(ptr noundef %18, ptr noundef %19, ptr noundef %7, ptr noundef %6)
  store i32 %20, ptr %9, align 4
  %21 = icmp ne i32 %20, 0
  br i1 %21, label %22, label %30

22:                                               ; preds = %2
  %23 = load i32, ptr %9, align 4
  %24 = icmp eq i32 %23, -11
  br i1 %24, label %25, label %26

25:                                               ; preds = %22
  call void (ptr, ...) @event_warn(ptr noundef @.str.162)
  br label %29

26:                                               ; preds = %22
  %27 = load i32, ptr %9, align 4
  %28 = call ptr @evutil_gai_strerror(i32 noundef %27)
  call void (ptr, ...) @event_warnx(ptr noundef @.str.163, ptr noundef %28)
  br label %29

29:                                               ; preds = %26, %25
  store ptr null, ptr %3, align 8
  store i32 1, ptr %10, align 4
  br label %32

30:                                               ; preds = %2
  %31 = load ptr, ptr %6, align 8
  store ptr %31, ptr %3, align 8
  store i32 1, ptr %10, align 4
  br label %32

32:                                               ; preds = %30, %29
  call void @llvm.lifetime.end.p0(i64 4, ptr %9) #11
  call void @llvm.lifetime.end.p0(i64 32, ptr %8) #11
  call void @llvm.lifetime.end.p0(i64 48, ptr %7) #11
  call void @llvm.lifetime.end.p0(i64 8, ptr %6) #11
  %33 = load ptr, ptr %3, align 8
  ret ptr %33
}

; Function Attrs: nounwind uwtable
define internal i32 @create_bind_socket_nonblock(ptr noundef %0, i32 noundef %1) #0 {
  %3 = alloca i32, align 4
  %4 = alloca ptr, align 8
  %5 = alloca i32, align 4
  %6 = alloca i32, align 4
  %7 = alloca i32, align 4
  %8 = alloca i32, align 4
  %9 = alloca i32, align 4
  %10 = alloca %union.__CONST_SOCKADDR_ARG, align 8
  store ptr %0, ptr %4, align 8
  store i32 %1, ptr %5, align 4
  call void @llvm.lifetime.start.p0(i64 4, ptr %6) #11
  call void @llvm.lifetime.start.p0(i64 4, ptr %7) #11
  call void @llvm.lifetime.start.p0(i64 4, ptr %8) #11
  %11 = load ptr, ptr %4, align 8
  %12 = icmp ne ptr %11, null
  br i1 %12, label %13, label %17

13:                                               ; preds = %2
  %14 = load ptr, ptr %4, align 8
  %15 = getelementptr inbounds nuw %struct.addrinfo, ptr %14, i32 0, i32 1
  %16 = load i32, ptr %15, align 4
  br label %18

17:                                               ; preds = %2
  br label %18

18:                                               ; preds = %17, %13
  %19 = phi i32 [ %16, %13 ], [ 2, %17 ]
  %20 = call i32 @evutil_socket_(i32 noundef %19, i32 noundef 526337, i32 noundef 0)
  store i32 %20, ptr %6, align 4
  %21 = load i32, ptr %6, align 4
  %22 = icmp eq i32 %21, -1
  br i1 %22, label %23, label %24

23:                                               ; preds = %18
  call void (i32, ptr, ...) @event_sock_warn(i32 noundef -1, ptr noundef @.str.160)
  store i32 -1, ptr %3, align 4
  store i32 1, ptr %9, align 4
  br label %68

24:                                               ; preds = %18
  %25 = load i32, ptr %6, align 4
  %26 = call i32 @evutil_set_tcp_keepalive(i32 noundef %25, i32 noundef 1, i32 noundef 300)
  %27 = icmp slt i32 %26, 0
  br i1 %27, label %28, label %29

28:                                               ; preds = %24
  br label %58

29:                                               ; preds = %24
  %30 = load i32, ptr %5, align 4
  %31 = icmp ne i32 %30, 0
  br i1 %31, label %32, label %38

32:                                               ; preds = %29
  %33 = load i32, ptr %6, align 4
  %34 = call i32 @evutil_make_listen_socket_reuseable(i32 noundef %33)
  %35 = icmp slt i32 %34, 0
  br i1 %35, label %36, label %37

36:                                               ; preds = %32
  br label %58

37:                                               ; preds = %32
  br label %38

38:                                               ; preds = %37, %29
  %39 = load ptr, ptr %4, align 8
  %40 = icmp ne ptr %39, null
  br i1 %40, label %41, label %56

41:                                               ; preds = %38
  %42 = load i32, ptr %6, align 4
  %43 = load ptr, ptr %4, align 8
  %44 = getelementptr inbounds nuw %struct.addrinfo, ptr %43, i32 0, i32 5
  %45 = load ptr, ptr %44, align 8
  store ptr %45, ptr %10, align 8
  %46 = load ptr, ptr %4, align 8
  %47 = getelementptr inbounds nuw %struct.addrinfo, ptr %46, i32 0, i32 4
  %48 = load i32, ptr %47, align 8
  %49 = getelementptr inbounds nuw %union.__CONST_SOCKADDR_ARG, ptr %10, i32 0, i32 0
  %50 = load ptr, ptr %49, align 8
  %51 = call i32 @bind(i32 noundef %42, ptr %50, i32 noundef %48) #11
  store i32 %51, ptr %7, align 4
  %52 = load i32, ptr %7, align 4
  %53 = icmp eq i32 %52, -1
  br i1 %53, label %54, label %55

54:                                               ; preds = %41
  br label %58

55:                                               ; preds = %41
  br label %56

56:                                               ; preds = %55, %38
  %57 = load i32, ptr %6, align 4
  store i32 %57, ptr %3, align 4
  store i32 1, ptr %9, align 4
  br label %68

58:                                               ; preds = %54, %36, %28
  %59 = call ptr @__errno_location() #13
  %60 = load i32, ptr %59, align 4
  store i32 %60, ptr %8, align 4
  %61 = load i32, ptr %6, align 4
  %62 = call i32 @evutil_closesocket(i32 noundef %61)
  br label %63

63:                                               ; preds = %58
  %64 = load i32, ptr %8, align 4
  %65 = call ptr @__errno_location() #13
  store i32 %64, ptr %65, align 4
  br label %66

66:                                               ; preds = %63
  br label %67

67:                                               ; preds = %66
  store i32 -1, ptr %3, align 4
  store i32 1, ptr %9, align 4
  br label %68

68:                                               ; preds = %67, %56, %23
  call void @llvm.lifetime.end.p0(i64 4, ptr %8) #11
  call void @llvm.lifetime.end.p0(i64 4, ptr %7) #11
  call void @llvm.lifetime.end.p0(i64 4, ptr %6) #11
  %69 = load i32, ptr %3, align 4
  ret i32 %69
}

; Function Attrs: nounwind uwtable
define internal i32 @bind_socket(ptr noundef %0, i16 noundef zeroext %1, i32 noundef %2) #0 {
  %4 = alloca i32, align 4
  %5 = alloca ptr, align 8
  %6 = alloca i16, align 2
  %7 = alloca i32, align 4
  %8 = alloca i32, align 4
  %9 = alloca ptr, align 8
  %10 = alloca i32, align 4
  store ptr %0, ptr %5, align 8
  store i16 %1, ptr %6, align 2
  store i32 %2, ptr %7, align 4
  call void @llvm.lifetime.start.p0(i64 4, ptr %8) #11
  call void @llvm.lifetime.start.p0(i64 8, ptr %9) #11
  store ptr null, ptr %9, align 8
  %11 = load ptr, ptr %5, align 8
  %12 = icmp eq ptr %11, null
  br i1 %12, label %13, label %19

13:                                               ; preds = %3
  %14 = load i16, ptr %6, align 2
  %15 = zext i16 %14 to i32
  %16 = icmp eq i32 %15, 0
  br i1 %16, label %17, label %19

17:                                               ; preds = %13
  %18 = call i32 @create_bind_socket_nonblock(ptr noundef null, i32 noundef 0)
  store i32 %18, ptr %4, align 4
  store i32 1, ptr %10, align 4
  br label %32

19:                                               ; preds = %13, %3
  %20 = load ptr, ptr %5, align 8
  %21 = load i16, ptr %6, align 2
  %22 = call ptr @make_addrinfo(ptr noundef %20, i16 noundef zeroext %21)
  store ptr %22, ptr %9, align 8
  %23 = load ptr, ptr %9, align 8
  %24 = icmp eq ptr %23, null
  br i1 %24, label %25, label %26

25:                                               ; preds = %19
  store i32 -1, ptr %4, align 4
  store i32 1, ptr %10, align 4
  br label %32

26:                                               ; preds = %19
  %27 = load ptr, ptr %9, align 8
  %28 = load i32, ptr %7, align 4
  %29 = call i32 @create_bind_socket_nonblock(ptr noundef %27, i32 noundef %28)
  store i32 %29, ptr %8, align 4
  %30 = load ptr, ptr %9, align 8
  call void @evutil_freeaddrinfo(ptr noundef %30)
  %31 = load i32, ptr %8, align 4
  store i32 %31, ptr %4, align 4
  store i32 1, ptr %10, align 4
  br label %32

32:                                               ; preds = %26, %25, %17
  call void @llvm.lifetime.end.p0(i64 8, ptr %9) #11
  call void @llvm.lifetime.end.p0(i64 4, ptr %8) #11
  %33 = load i32, ptr %4, align 4
  ret i32 %33
}