; Function Attrs: nounwind uwtable
define internal fastcc i32 @bind_socket(ptr noundef %0, i16 noundef zeroext %1, i32 noundef range(i32 0, 2) %2) unnamed_addr #0 {
  %4 = alloca ptr, align 8
  %5 = alloca %struct.addrinfo, align 8
  %6 = alloca [32 x i8], align 16
  %7 = icmp eq ptr %0, null
  %8 = icmp eq i16 %1, 0
  %or.cond = and i1 %7, %8
  br i1 %or.cond, label %9, label %20

9:                                                ; preds = %3
  %10 = tail call i32 @evutil_socket_(i32 noundef 2, i32 noundef 526337, i32 noundef 0) #18
  %11 = icmp eq i32 %10, -1
  br i1 %11, label %12, label %13

12:                                               ; preds = %9
  tail call void (i32, ptr, ...) @event_sock_warn(i32 noundef -1, ptr noundef nonnull @.str.160) #18
  br label %create_bind_socket_nonblock.exit

13:                                               ; preds = %9
  %14 = tail call i32 @evutil_set_tcp_keepalive(i32 noundef %10, i32 noundef 1, i32 noundef 300) #18
  %15 = icmp slt i32 %14, 0
  br i1 %15, label %16, label %create_bind_socket_nonblock.exit

16:                                               ; preds = %13
  %17 = tail call ptr @__errno_location() #19
  %18 = load i32, ptr %17, align 4
  %19 = tail call i32 @evutil_closesocket(i32 noundef %10) #18
  store i32 %18, ptr %17, align 4
  br label %create_bind_socket_nonblock.exit

20:                                               ; preds = %3
  call void @llvm.lifetime.start.p0(i64 8, ptr nonnull %4) #18
  store ptr null, ptr %4, align 8
  call void @llvm.lifetime.start.p0(i64 48, ptr nonnull %5) #18
  call void @llvm.lifetime.start.p0(i64 32, ptr nonnull %6) #18
  %21 = getelementptr inbounds nuw i8, ptr %5, i64 8
  call void @llvm.memset.p0.i64(ptr noundef nonnull align 8 dereferenceable(48) %5, i8 0, i64 48, i1 false)
  store i32 1, ptr %21, align 8
  store i32 33, ptr %5, align 8
  %22 = zext i16 %1 to i32
  %23 = call i32 (ptr, i64, ptr, ...) @evutil_snprintf(ptr noundef nonnull %6, i64 noundef 32, ptr noundef nonnull @.str.161, i32 noundef %22) #18
  %24 = call i32 @evutil_getaddrinfo(ptr noundef %0, ptr noundef nonnull %6, ptr noundef nonnull %5, ptr noundef nonnull %4) #18
  switch i32 %24, label %26 [
    i32 0, label %make_addrinfo.exit
    i32 -11, label %25
  ]

25:                                               ; preds = %20
  call void (ptr, ...) @event_warn(ptr noundef nonnull @.str.162) #18
  br label %make_addrinfo.exit.thread

26:                                               ; preds = %20
  %27 = call ptr @evutil_gai_strerror(i32 noundef %24) #18
  call void (ptr, ...) @event_warnx(ptr noundef nonnull @.str.163, ptr noundef %27) #18
  br label %make_addrinfo.exit.thread

make_addrinfo.exit.thread:                        ; preds = %26, %25
  call void @llvm.lifetime.end.p0(i64 32, ptr nonnull %6) #18
  call void @llvm.lifetime.end.p0(i64 48, ptr nonnull %5) #18
  call void @llvm.lifetime.end.p0(i64 8, ptr nonnull %4) #18
  br label %create_bind_socket_nonblock.exit

make_addrinfo.exit:                               ; preds = %20
  %28 = load ptr, ptr %4, align 8
  call void @llvm.lifetime.end.p0(i64 32, ptr nonnull %6) #18
  call void @llvm.lifetime.end.p0(i64 48, ptr nonnull %5) #18
  call void @llvm.lifetime.end.p0(i64 8, ptr nonnull %4) #18
  %29 = icmp eq ptr %28, null
  br i1 %29, label %create_bind_socket_nonblock.exit, label %30

30:                                               ; preds = %make_addrinfo.exit
  %31 = getelementptr inbounds nuw i8, ptr %28, i64 4
  %32 = load i32, ptr %31, align 4
  %33 = call i32 @evutil_socket_(i32 noundef %32, i32 noundef 526337, i32 noundef 0) #18
  %34 = icmp eq i32 %33, -1
  br i1 %34, label %35, label %36

35:                                               ; preds = %30
  call void (i32, ptr, ...) @event_sock_warn(i32 noundef -1, ptr noundef nonnull @.str.160) #18
  br label %create_bind_socket_nonblock.exit14

36:                                               ; preds = %30
  %37 = call i32 @evutil_set_tcp_keepalive(i32 noundef %33, i32 noundef 1, i32 noundef 300) #18
  %38 = icmp slt i32 %37, 0
  br i1 %38, label %50, label %39

39:                                               ; preds = %36
  %.not16.i = icmp eq i32 %2, 0
  br i1 %.not16.i, label %43, label %40

40:                                               ; preds = %39
  %41 = call i32 @evutil_make_listen_socket_reuseable(i32 noundef %33) #18
  %42 = icmp slt i32 %41, 0
  br i1 %42, label %50, label %43

43:                                               ; preds = %39, %40
  %44 = getelementptr inbounds nuw i8, ptr %28, i64 24
  %45 = load ptr, ptr %44, align 8
  %46 = getelementptr inbounds nuw i8, ptr %28, i64 16
  %47 = load i32, ptr %46, align 8
  %48 = call i32 @bind(i32 noundef %33, ptr %45, i32 noundef %47) #18
  %49 = icmp eq i32 %48, -1
  br i1 %49, label %50, label %create_bind_socket_nonblock.exit14

50:                                               ; preds = %43, %40, %36
  %51 = tail call ptr @__errno_location() #19
  %52 = load i32, ptr %51, align 4
  %53 = call i32 @evutil_closesocket(i32 noundef %33) #18
  store i32 %52, ptr %51, align 4
  br label %create_bind_socket_nonblock.exit14

create_bind_socket_nonblock.exit14:               ; preds = %35, %43, %50
  %.0.i13 = phi i32 [ -1, %35 ], [ -1, %50 ], [ %33, %43 ]
  call void @evutil_freeaddrinfo(ptr noundef nonnull %28) #18
  br label %create_bind_socket_nonblock.exit

create_bind_socket_nonblock.exit:                 ; preds = %make_addrinfo.exit.thread, %16, %12, %13, %make_addrinfo.exit, %create_bind_socket_nonblock.exit14
  %.0 = phi i32 [ %.0.i13, %create_bind_socket_nonblock.exit14 ], [ -1, %make_addrinfo.exit ], [ -1, %12 ], [ -1, %16 ], [ %10, %13 ], [ -1, %make_addrinfo.exit.thread ]
  ret i32 %.0
}